                                      1 ;--------------------------------------------------------
                                      2 ; File Created by SDCC : free open source ANSI-C Compiler
                                      3 ; Version 3.5.0 #9253 (Mar 24 2016) (Linux)
                                      4 ; This file was generated Tue Dec 12 21:27:55 2017
                                      5 ;--------------------------------------------------------
                                      6 	.module stm8s_clk_clk_ccoconfig
                                      7 	.optsdcc -mstm8
                                      8 	
                                      9 ;--------------------------------------------------------
                                     10 ; Public variables in this module
                                     11 ;--------------------------------------------------------
                                     12 	.globl _assert_failed
                                     13 	.globl _CLK_CCOConfig
                                     14 ;--------------------------------------------------------
                                     15 ; ram data
                                     16 ;--------------------------------------------------------
                                     17 	.area DATA
                                     18 ;--------------------------------------------------------
                                     19 ; ram data
                                     20 ;--------------------------------------------------------
                                     21 	.area INITIALIZED
                                     22 ;--------------------------------------------------------
                                     23 ; absolute external ram data
                                     24 ;--------------------------------------------------------
                                     25 	.area DABS (ABS)
                                     26 ;--------------------------------------------------------
                                     27 ; global & static initialisations
                                     28 ;--------------------------------------------------------
                                     29 	.area HOME
                                     30 	.area GSINIT
                                     31 	.area GSFINAL
                                     32 	.area GSINIT
                                     33 ;--------------------------------------------------------
                                     34 ; Home
                                     35 ;--------------------------------------------------------
                                     36 	.area HOME
                                     37 	.area HOME
                                     38 ;--------------------------------------------------------
                                     39 ; code
                                     40 ;--------------------------------------------------------
                                     41 	.area CODE
                                     42 ;	/home/grytole/dev/git/stm8builder/stm8builder/stdperiph_driver/src/stm8s_clk.clk_ccoconfig.c: 57: void CLK_CCOConfig(CLK_Output_TypeDef CLK_CCO)
                                     43 ;	-----------------------------------------
                                     44 ;	 function CLK_CCOConfig
                                     45 ;	-----------------------------------------
      000000                         46 _CLK_CCOConfig:
                                     47 ;	/home/grytole/dev/git/stm8builder/stm8builder/stdperiph_driver/src/stm8s_clk.clk_ccoconfig.c: 60: assert_param(IS_CLK_OUTPUT_OK(CLK_CCO));
      000000 0D 03            [ 1]   48 	tnz	(0x03, sp)
      000002 27 59            [ 1]   49 	jreq	00104$
      000004 7B 03            [ 1]   50 	ld	a, (0x03, sp)
      000006 A1 04            [ 1]   51 	cp	a, #0x04
      000008 27 53            [ 1]   52 	jreq	00104$
      00000A 7B 03            [ 1]   53 	ld	a, (0x03, sp)
      00000C A1 02            [ 1]   54 	cp	a, #0x02
      00000E 27 4D            [ 1]   55 	jreq	00104$
      000010 7B 03            [ 1]   56 	ld	a, (0x03, sp)
      000012 A1 08            [ 1]   57 	cp	a, #0x08
      000014 27 47            [ 1]   58 	jreq	00104$
      000016 7B 03            [ 1]   59 	ld	a, (0x03, sp)
      000018 A1 0A            [ 1]   60 	cp	a, #0x0a
      00001A 27 41            [ 1]   61 	jreq	00104$
      00001C 7B 03            [ 1]   62 	ld	a, (0x03, sp)
      00001E A1 0C            [ 1]   63 	cp	a, #0x0c
      000020 27 3B            [ 1]   64 	jreq	00104$
      000022 7B 03            [ 1]   65 	ld	a, (0x03, sp)
      000024 A1 0E            [ 1]   66 	cp	a, #0x0e
      000026 27 35            [ 1]   67 	jreq	00104$
      000028 7B 03            [ 1]   68 	ld	a, (0x03, sp)
      00002A A1 10            [ 1]   69 	cp	a, #0x10
      00002C 27 2F            [ 1]   70 	jreq	00104$
      00002E 7B 03            [ 1]   71 	ld	a, (0x03, sp)
      000030 A1 12            [ 1]   72 	cp	a, #0x12
      000032 27 29            [ 1]   73 	jreq	00104$
      000034 7B 03            [ 1]   74 	ld	a, (0x03, sp)
      000036 A1 14            [ 1]   75 	cp	a, #0x14
      000038 27 23            [ 1]   76 	jreq	00104$
      00003A 7B 03            [ 1]   77 	ld	a, (0x03, sp)
      00003C A1 16            [ 1]   78 	cp	a, #0x16
      00003E 27 1D            [ 1]   79 	jreq	00104$
      000040 7B 03            [ 1]   80 	ld	a, (0x03, sp)
      000042 A1 18            [ 1]   81 	cp	a, #0x18
      000044 27 17            [ 1]   82 	jreq	00104$
      000046 7B 03            [ 1]   83 	ld	a, (0x03, sp)
      000048 A1 1A            [ 1]   84 	cp	a, #0x1a
      00004A 27 11            [ 1]   85 	jreq	00104$
      00004C 90 AEr00r73      [ 2]   86 	ldw	y, #___str_0+0
      000050 4B 3C            [ 1]   87 	push	#0x3c
      000052 5F               [ 1]   88 	clrw	x
      000053 89               [ 2]   89 	pushw	x
      000054 4B 00            [ 1]   90 	push	#0x00
      000056 90 89            [ 2]   91 	pushw	y
      000058 CDr00r00         [ 4]   92 	call	_assert_failed
      00005B 5B 06            [ 2]   93 	addw	sp, #6
      00005D                         94 00104$:
                                     95 ;	/home/grytole/dev/git/stm8builder/stm8builder/stdperiph_driver/src/stm8s_clk.clk_ccoconfig.c: 63: CLK->CCOR &= (uint8_t)(~CLK_CCOR_CCOSEL);
      00005D AE 50 C9         [ 2]   96 	ldw	x, #0x50c9
      000060 F6               [ 1]   97 	ld	a, (x)
      000061 A4 E1            [ 1]   98 	and	a, #0xe1
      000063 F7               [ 1]   99 	ld	(x), a
                                    100 ;	/home/grytole/dev/git/stm8builder/stm8builder/stdperiph_driver/src/stm8s_clk.clk_ccoconfig.c: 66: CLK->CCOR |= (uint8_t)CLK_CCO;
      000064 AE 50 C9         [ 2]  101 	ldw	x, #0x50c9
      000067 F6               [ 1]  102 	ld	a, (x)
      000068 1A 03            [ 1]  103 	or	a, (0x03, sp)
      00006A AE 50 C9         [ 2]  104 	ldw	x, #0x50c9
      00006D F7               [ 1]  105 	ld	(x), a
                                    106 ;	/home/grytole/dev/git/stm8builder/stm8builder/stdperiph_driver/src/stm8s_clk.clk_ccoconfig.c: 69: CLK->CCOR |= CLK_CCOR_CCOEN;
      00006E 72 10 50 C9      [ 1]  107 	bset	0x50c9, #0
      000072 81               [ 4]  108 	ret
                                    109 	.area CODE
      000073                        110 ___str_0:
      000073 2F 68 6F 6D 65 2F 67   111 	.ascii "/home/grytole/dev/git/stm8builder/stm8builder/stdperiph_driv"
             72 79 74 6F 6C 65 2F
             64 65 76 2F 67 69 74
             2F 73 74 6D 38 62 75
             69 6C 64 65 72 2F 73
             74 6D 38 62 75 69 6C
             64 65 72 2F 73 74 64
             70 65 72 69 70 68 5F
             64 72 69 76
      0000AF 65 72 2F 73 72 63 2F   112 	.ascii "er/src/stm8s_clk.clk_ccoconfig.c"
             73 74 6D 38 73 5F 63
             6C 6B 2E 63 6C 6B 5F
             63 63 6F 63 6F 6E 66
             69 67 2E 63
      0000CF 00                     113 	.db 0x00
                                    114 	.area INITIALIZER
                                    115 	.area CABS (ABS)
