                                      1 ;--------------------------------------------------------
                                      2 ; File Created by SDCC : free open source ANSI-C Compiler
                                      3 ; Version 3.5.0 #9253 (Mar 24 2016) (Linux)
                                      4 ; This file was generated Tue Dec 12 21:28:11 2017
                                      5 ;--------------------------------------------------------
                                      6 	.module stm8s_adc1_adc1_awdchannelconfig
                                      7 	.optsdcc -mstm8
                                      8 	
                                      9 ;--------------------------------------------------------
                                     10 ; Public variables in this module
                                     11 ;--------------------------------------------------------
                                     12 	.globl _assert_failed
                                     13 	.globl _ADC1_AWDChannelConfig
                                     14 ;--------------------------------------------------------
                                     15 ; ram data
                                     16 ;--------------------------------------------------------
                                     17 	.area DATA
                                     18 ;--------------------------------------------------------
                                     19 ; ram data
                                     20 ;--------------------------------------------------------
                                     21 	.area INITIALIZED
                                     22 ;--------------------------------------------------------
                                     23 ; absolute external ram data
                                     24 ;--------------------------------------------------------
                                     25 	.area DABS (ABS)
                                     26 ;--------------------------------------------------------
                                     27 ; global & static initialisations
                                     28 ;--------------------------------------------------------
                                     29 	.area HOME
                                     30 	.area GSINIT
                                     31 	.area GSFINAL
                                     32 	.area GSINIT
                                     33 ;--------------------------------------------------------
                                     34 ; Home
                                     35 ;--------------------------------------------------------
                                     36 	.area HOME
                                     37 	.area HOME
                                     38 ;--------------------------------------------------------
                                     39 ; code
                                     40 ;--------------------------------------------------------
                                     41 	.area CODE
                                     42 ;	/home/grytole/dev/git/stm8builder/stm8builder/stdperiph_driver/src/stm8s_adc1.adc1_awdchannelconfig.c: 55: void ADC1_AWDChannelConfig(ADC1_Channel_TypeDef Channel, FunctionalState NewState)
                                     43 ;	-----------------------------------------
                                     44 ;	 function ADC1_AWDChannelConfig
                                     45 ;	-----------------------------------------
      000000                         46 _ADC1_AWDChannelConfig:
      000000 52 04            [ 2]   47 	sub	sp, #4
                                     48 ;	/home/grytole/dev/git/stm8builder/stm8builder/stdperiph_driver/src/stm8s_adc1.adc1_awdchannelconfig.c: 58: assert_param(IS_FUNCTIONALSTATE_OK(NewState));
      000002 0D 08            [ 1]   49 	tnz	(0x08, sp)
      000004 27 17            [ 1]   50 	jreq	00113$
      000006 7B 08            [ 1]   51 	ld	a, (0x08, sp)
      000008 A1 01            [ 1]   52 	cp	a, #0x01
      00000A 27 11            [ 1]   53 	jreq	00113$
      00000C 90 AEr00rD6      [ 2]   54 	ldw	y, #___str_0+0
      000010 4B 3A            [ 1]   55 	push	#0x3a
      000012 5F               [ 1]   56 	clrw	x
      000013 89               [ 2]   57 	pushw	x
      000014 4B 00            [ 1]   58 	push	#0x00
      000016 90 89            [ 2]   59 	pushw	y
      000018 CDr00r00         [ 4]   60 	call	_assert_failed
      00001B 5B 06            [ 2]   61 	addw	sp, #6
      00001D                         62 00113$:
                                     63 ;	/home/grytole/dev/git/stm8builder/stm8builder/stdperiph_driver/src/stm8s_adc1.adc1_awdchannelconfig.c: 59: assert_param(IS_ADC1_CHANNEL_OK(Channel));
      00001D 0D 07            [ 1]   64 	tnz	(0x07, sp)
      00001F 27 4D            [ 1]   65 	jreq	00118$
      000021 7B 07            [ 1]   66 	ld	a, (0x07, sp)
      000023 A1 01            [ 1]   67 	cp	a, #0x01
      000025 27 47            [ 1]   68 	jreq	00118$
      000027 7B 07            [ 1]   69 	ld	a, (0x07, sp)
      000029 A1 02            [ 1]   70 	cp	a, #0x02
      00002B 27 41            [ 1]   71 	jreq	00118$
      00002D 7B 07            [ 1]   72 	ld	a, (0x07, sp)
      00002F A1 03            [ 1]   73 	cp	a, #0x03
      000031 27 3B            [ 1]   74 	jreq	00118$
      000033 7B 07            [ 1]   75 	ld	a, (0x07, sp)
      000035 A1 04            [ 1]   76 	cp	a, #0x04
      000037 27 35            [ 1]   77 	jreq	00118$
      000039 7B 07            [ 1]   78 	ld	a, (0x07, sp)
      00003B A1 05            [ 1]   79 	cp	a, #0x05
      00003D 27 2F            [ 1]   80 	jreq	00118$
      00003F 7B 07            [ 1]   81 	ld	a, (0x07, sp)
      000041 A1 06            [ 1]   82 	cp	a, #0x06
      000043 27 29            [ 1]   83 	jreq	00118$
      000045 7B 07            [ 1]   84 	ld	a, (0x07, sp)
      000047 A1 07            [ 1]   85 	cp	a, #0x07
      000049 27 23            [ 1]   86 	jreq	00118$
      00004B 7B 07            [ 1]   87 	ld	a, (0x07, sp)
      00004D A1 08            [ 1]   88 	cp	a, #0x08
      00004F 27 1D            [ 1]   89 	jreq	00118$
      000051 7B 07            [ 1]   90 	ld	a, (0x07, sp)
      000053 A1 0C            [ 1]   91 	cp	a, #0x0c
      000055 27 17            [ 1]   92 	jreq	00118$
      000057 7B 07            [ 1]   93 	ld	a, (0x07, sp)
      000059 A1 09            [ 1]   94 	cp	a, #0x09
      00005B 27 11            [ 1]   95 	jreq	00118$
      00005D 90 AEr00rD6      [ 2]   96 	ldw	y, #___str_0+0
      000061 4B 3B            [ 1]   97 	push	#0x3b
      000063 5F               [ 1]   98 	clrw	x
      000064 89               [ 2]   99 	pushw	x
      000065 4B 00            [ 1]  100 	push	#0x00
      000067 90 89            [ 2]  101 	pushw	y
      000069 CDr00r00         [ 4]  102 	call	_assert_failed
      00006C 5B 06            [ 2]  103 	addw	sp, #6
      00006E                        104 00118$:
                                    105 ;	/home/grytole/dev/git/stm8builder/stm8builder/stdperiph_driver/src/stm8s_adc1.adc1_awdchannelconfig.c: 61: if (Channel < (uint8_t)8)
      00006E 7B 07            [ 1]  106 	ld	a, (0x07, sp)
      000070 A1 08            [ 1]  107 	cp	a, #0x08
      000072 24 2E            [ 1]  108 	jrnc	00108$
                                    109 ;	/home/grytole/dev/git/stm8builder/stm8builder/stdperiph_driver/src/stm8s_adc1.adc1_awdchannelconfig.c: 65: ADC1->AWCRL |= (uint8_t)((uint8_t)1 << Channel);
      000074 A6 01            [ 1]  110 	ld	a, #0x01
      000076 6B 01            [ 1]  111 	ld	(0x01, sp), a
      000078 7B 07            [ 1]  112 	ld	a, (0x07, sp)
      00007A 27 05            [ 1]  113 	jreq	00250$
      00007C                        114 00249$:
      00007C 08 01            [ 1]  115 	sll	(0x01, sp)
      00007E 4A               [ 1]  116 	dec	a
      00007F 26 FB            [ 1]  117 	jrne	00249$
      000081                        118 00250$:
                                    119 ;	/home/grytole/dev/git/stm8builder/stm8builder/stdperiph_driver/src/stm8s_adc1.adc1_awdchannelconfig.c: 63: if (NewState != DISABLE)
      000081 0D 08            [ 1]  120 	tnz	(0x08, sp)
      000083 27 0C            [ 1]  121 	jreq	00102$
                                    122 ;	/home/grytole/dev/git/stm8builder/stm8builder/stdperiph_driver/src/stm8s_adc1.adc1_awdchannelconfig.c: 65: ADC1->AWCRL |= (uint8_t)((uint8_t)1 << Channel);
      000085 AE 54 0F         [ 2]  123 	ldw	x, #0x540f
      000088 F6               [ 1]  124 	ld	a, (x)
      000089 1A 01            [ 1]  125 	or	a, (0x01, sp)
      00008B AE 54 0F         [ 2]  126 	ldw	x, #0x540f
      00008E F7               [ 1]  127 	ld	(x), a
      00008F 20 42            [ 2]  128 	jra	00110$
      000091                        129 00102$:
                                    130 ;	/home/grytole/dev/git/stm8builder/stm8builder/stdperiph_driver/src/stm8s_adc1.adc1_awdchannelconfig.c: 69: ADC1->AWCRL &= (uint8_t)~(uint8_t)((uint8_t)1 << Channel);
      000091 AE 54 0F         [ 2]  131 	ldw	x, #0x540f
      000094 F6               [ 1]  132 	ld	a, (x)
      000095 6B 04            [ 1]  133 	ld	(0x04, sp), a
      000097 7B 01            [ 1]  134 	ld	a, (0x01, sp)
      000099 43               [ 1]  135 	cpl	a
      00009A 14 04            [ 1]  136 	and	a, (0x04, sp)
      00009C AE 54 0F         [ 2]  137 	ldw	x, #0x540f
      00009F F7               [ 1]  138 	ld	(x), a
      0000A0 20 31            [ 2]  139 	jra	00110$
      0000A2                        140 00108$:
                                    141 ;	/home/grytole/dev/git/stm8builder/stm8builder/stdperiph_driver/src/stm8s_adc1.adc1_awdchannelconfig.c: 76: ADC1->AWCRH |= (uint8_t)((uint8_t)1 << (Channel - (uint8_t)8));
      0000A2 7B 07            [ 1]  142 	ld	a, (0x07, sp)
      0000A4 A0 08            [ 1]  143 	sub	a, #0x08
      0000A6 95               [ 1]  144 	ld	xh, a
      0000A7 A6 01            [ 1]  145 	ld	a, #0x01
      0000A9 6B 03            [ 1]  146 	ld	(0x03, sp), a
      0000AB 9E               [ 1]  147 	ld	a, xh
      0000AC 4D               [ 1]  148 	tnz	a
      0000AD 27 05            [ 1]  149 	jreq	00253$
      0000AF                        150 00252$:
      0000AF 08 03            [ 1]  151 	sll	(0x03, sp)
      0000B1 4A               [ 1]  152 	dec	a
      0000B2 26 FB            [ 1]  153 	jrne	00252$
      0000B4                        154 00253$:
                                    155 ;	/home/grytole/dev/git/stm8builder/stm8builder/stdperiph_driver/src/stm8s_adc1.adc1_awdchannelconfig.c: 74: if (NewState != DISABLE)
      0000B4 0D 08            [ 1]  156 	tnz	(0x08, sp)
      0000B6 27 0C            [ 1]  157 	jreq	00105$
                                    158 ;	/home/grytole/dev/git/stm8builder/stm8builder/stdperiph_driver/src/stm8s_adc1.adc1_awdchannelconfig.c: 76: ADC1->AWCRH |= (uint8_t)((uint8_t)1 << (Channel - (uint8_t)8));
      0000B8 AE 54 0E         [ 2]  159 	ldw	x, #0x540e
      0000BB F6               [ 1]  160 	ld	a, (x)
      0000BC 1A 03            [ 1]  161 	or	a, (0x03, sp)
      0000BE AE 54 0E         [ 2]  162 	ldw	x, #0x540e
      0000C1 F7               [ 1]  163 	ld	(x), a
      0000C2 20 0F            [ 2]  164 	jra	00110$
      0000C4                        165 00105$:
                                    166 ;	/home/grytole/dev/git/stm8builder/stm8builder/stdperiph_driver/src/stm8s_adc1.adc1_awdchannelconfig.c: 80: ADC1->AWCRH &= (uint8_t)~(uint8_t)((uint8_t)1 << (uint8_t)(Channel - (uint8_t)8));
      0000C4 AE 54 0E         [ 2]  167 	ldw	x, #0x540e
      0000C7 F6               [ 1]  168 	ld	a, (x)
      0000C8 6B 02            [ 1]  169 	ld	(0x02, sp), a
      0000CA 7B 03            [ 1]  170 	ld	a, (0x03, sp)
      0000CC 43               [ 1]  171 	cpl	a
      0000CD 14 02            [ 1]  172 	and	a, (0x02, sp)
      0000CF AE 54 0E         [ 2]  173 	ldw	x, #0x540e
      0000D2 F7               [ 1]  174 	ld	(x), a
      0000D3                        175 00110$:
      0000D3 5B 04            [ 2]  176 	addw	sp, #4
      0000D5 81               [ 4]  177 	ret
                                    178 	.area CODE
      0000D6                        179 ___str_0:
      0000D6 2F 68 6F 6D 65 2F 67   180 	.ascii "/home/grytole/dev/git/stm8builder/stm8builder/stdperiph_driv"
             72 79 74 6F 6C 65 2F
             64 65 76 2F 67 69 74
             2F 73 74 6D 38 62 75
             69 6C 64 65 72 2F 73
             74 6D 38 62 75 69 6C
             64 65 72 2F 73 74 64
             70 65 72 69 70 68 5F
             64 72 69 76
      000112 65 72 2F 73 72 63 2F   181 	.ascii "er/src/stm8s_adc1.adc1_awdchannelconfig.c"
             73 74 6D 38 73 5F 61
             64 63 31 2E 61 64 63
             31 5F 61 77 64 63 68
             61 6E 6E 65 6C 63 6F
             6E 66 69 67 2E 63
      00013B 00                     182 	.db 0x00
                                    183 	.area INITIALIZER
                                    184 	.area CABS (ABS)
