                                      1 ;--------------------------------------------------------
                                      2 ; File Created by SDCC : free open source ANSI-C Compiler
                                      3 ; Version 3.5.0 #9253 (Mar 24 2016) (Linux)
                                      4 ; This file was generated Tue Dec 12 21:27:54 2017
                                      5 ;--------------------------------------------------------
                                      6 	.module stm8s_awu_awu_init
                                      7 	.optsdcc -mstm8
                                      8 	
                                      9 ;--------------------------------------------------------
                                     10 ; Public variables in this module
                                     11 ;--------------------------------------------------------
                                     12 	.globl _TBR_Array
                                     13 	.globl _APR_Array
                                     14 	.globl _assert_failed
                                     15 	.globl _AWU_Init
                                     16 ;--------------------------------------------------------
                                     17 ; ram data
                                     18 ;--------------------------------------------------------
                                     19 	.area DATA
                                     20 ;--------------------------------------------------------
                                     21 ; ram data
                                     22 ;--------------------------------------------------------
                                     23 	.area INITIALIZED
                                     24 ;--------------------------------------------------------
                                     25 ; absolute external ram data
                                     26 ;--------------------------------------------------------
                                     27 	.area DABS (ABS)
                                     28 ;--------------------------------------------------------
                                     29 ; global & static initialisations
                                     30 ;--------------------------------------------------------
                                     31 	.area HOME
                                     32 	.area GSINIT
                                     33 	.area GSFINAL
                                     34 	.area GSINIT
                                     35 ;--------------------------------------------------------
                                     36 ; Home
                                     37 ;--------------------------------------------------------
                                     38 	.area HOME
                                     39 	.area HOME
                                     40 ;--------------------------------------------------------
                                     41 ; code
                                     42 ;--------------------------------------------------------
                                     43 	.area CODE
                                     44 ;	/home/grytole/dev/git/stm8builder/stm8builder/stdperiph_driver/src/stm8s_awu.awu_init.c: 75: void AWU_Init(AWU_Timebase_TypeDef AWU_TimeBase)
                                     45 ;	-----------------------------------------
                                     46 ;	 function AWU_Init
                                     47 ;	-----------------------------------------
      000000                         48 _AWU_Init:
      000000 89               [ 2]   49 	pushw	x
                                     50 ;	/home/grytole/dev/git/stm8builder/stm8builder/stdperiph_driver/src/stm8s_awu.awu_init.c: 78: assert_param(IS_AWU_TIMEBASE_OK(AWU_TimeBase));
      000001 0D 05            [ 1]   51 	tnz	(0x05, sp)
      000003 27 71            [ 1]   52 	jreq	00104$
      000005 7B 05            [ 1]   53 	ld	a, (0x05, sp)
      000007 A1 01            [ 1]   54 	cp	a, #0x01
      000009 27 6B            [ 1]   55 	jreq	00104$
      00000B 7B 05            [ 1]   56 	ld	a, (0x05, sp)
      00000D A1 02            [ 1]   57 	cp	a, #0x02
      00000F 27 65            [ 1]   58 	jreq	00104$
      000011 7B 05            [ 1]   59 	ld	a, (0x05, sp)
      000013 A1 03            [ 1]   60 	cp	a, #0x03
      000015 27 5F            [ 1]   61 	jreq	00104$
      000017 7B 05            [ 1]   62 	ld	a, (0x05, sp)
      000019 A1 04            [ 1]   63 	cp	a, #0x04
      00001B 27 59            [ 1]   64 	jreq	00104$
      00001D 7B 05            [ 1]   65 	ld	a, (0x05, sp)
      00001F A1 05            [ 1]   66 	cp	a, #0x05
      000021 27 53            [ 1]   67 	jreq	00104$
      000023 7B 05            [ 1]   68 	ld	a, (0x05, sp)
      000025 A1 06            [ 1]   69 	cp	a, #0x06
      000027 27 4D            [ 1]   70 	jreq	00104$
      000029 7B 05            [ 1]   71 	ld	a, (0x05, sp)
      00002B A1 07            [ 1]   72 	cp	a, #0x07
      00002D 27 47            [ 1]   73 	jreq	00104$
      00002F 7B 05            [ 1]   74 	ld	a, (0x05, sp)
      000031 A1 08            [ 1]   75 	cp	a, #0x08
      000033 27 41            [ 1]   76 	jreq	00104$
      000035 7B 05            [ 1]   77 	ld	a, (0x05, sp)
      000037 A1 09            [ 1]   78 	cp	a, #0x09
      000039 27 3B            [ 1]   79 	jreq	00104$
      00003B 7B 05            [ 1]   80 	ld	a, (0x05, sp)
      00003D A1 0A            [ 1]   81 	cp	a, #0x0a
      00003F 27 35            [ 1]   82 	jreq	00104$
      000041 7B 05            [ 1]   83 	ld	a, (0x05, sp)
      000043 A1 0B            [ 1]   84 	cp	a, #0x0b
      000045 27 2F            [ 1]   85 	jreq	00104$
      000047 7B 05            [ 1]   86 	ld	a, (0x05, sp)
      000049 A1 0C            [ 1]   87 	cp	a, #0x0c
      00004B 27 29            [ 1]   88 	jreq	00104$
      00004D 7B 05            [ 1]   89 	ld	a, (0x05, sp)
      00004F A1 0D            [ 1]   90 	cp	a, #0x0d
      000051 27 23            [ 1]   91 	jreq	00104$
      000053 7B 05            [ 1]   92 	ld	a, (0x05, sp)
      000055 A1 0E            [ 1]   93 	cp	a, #0x0e
      000057 27 1D            [ 1]   94 	jreq	00104$
      000059 7B 05            [ 1]   95 	ld	a, (0x05, sp)
      00005B A1 0F            [ 1]   96 	cp	a, #0x0f
      00005D 27 17            [ 1]   97 	jreq	00104$
      00005F 7B 05            [ 1]   98 	ld	a, (0x05, sp)
      000061 A1 10            [ 1]   99 	cp	a, #0x10
      000063 27 11            [ 1]  100 	jreq	00104$
      000065 90 AEr00rDD      [ 2]  101 	ldw	y, #___str_0+0
      000069 4B 4E            [ 1]  102 	push	#0x4e
      00006B 5F               [ 1]  103 	clrw	x
      00006C 89               [ 2]  104 	pushw	x
      00006D 4B 00            [ 1]  105 	push	#0x00
      00006F 90 89            [ 2]  106 	pushw	y
      000071 CDr00r00         [ 4]  107 	call	_assert_failed
      000074 5B 06            [ 2]  108 	addw	sp, #6
      000076                        109 00104$:
                                    110 ;	/home/grytole/dev/git/stm8builder/stm8builder/stdperiph_driver/src/stm8s_awu.awu_init.c: 81: AWU->CSR |= AWU_CSR_AWUEN;
      000076 AE 50 F0         [ 2]  111 	ldw	x, #0x50f0
      000079 F6               [ 1]  112 	ld	a, (x)
      00007A AA 10            [ 1]  113 	or	a, #0x10
      00007C F7               [ 1]  114 	ld	(x), a
                                    115 ;	/home/grytole/dev/git/stm8builder/stm8builder/stdperiph_driver/src/stm8s_awu.awu_init.c: 84: AWU->TBR &= (uint8_t)(~AWU_TBR_AWUTB);
      00007D AE 50 F2         [ 2]  116 	ldw	x, #0x50f2
      000080 F6               [ 1]  117 	ld	a, (x)
      000081 A4 F0            [ 1]  118 	and	a, #0xf0
      000083 F7               [ 1]  119 	ld	(x), a
                                    120 ;	/home/grytole/dev/git/stm8builder/stm8builder/stdperiph_driver/src/stm8s_awu.awu_init.c: 85: AWU->TBR |= TBR_Array[(uint8_t)AWU_TimeBase];
      000084 AE 50 F2         [ 2]  121 	ldw	x, #0x50f2
      000087 F6               [ 1]  122 	ld	a, (x)
      000088 6B 01            [ 1]  123 	ld	(0x01, sp), a
      00008A AEr00rCC         [ 2]  124 	ldw	x, #_TBR_Array+0
      00008D 9F               [ 1]  125 	ld	a, xl
      00008E 1B 05            [ 1]  126 	add	a, (0x05, sp)
      000090 02               [ 1]  127 	rlwa	x
      000091 A9 00            [ 1]  128 	adc	a, #0x00
      000093 95               [ 1]  129 	ld	xh, a
      000094 F6               [ 1]  130 	ld	a, (x)
      000095 1A 01            [ 1]  131 	or	a, (0x01, sp)
      000097 AE 50 F2         [ 2]  132 	ldw	x, #0x50f2
      00009A F7               [ 1]  133 	ld	(x), a
                                    134 ;	/home/grytole/dev/git/stm8builder/stm8builder/stdperiph_driver/src/stm8s_awu.awu_init.c: 88: AWU->APR &= (uint8_t)(~AWU_APR_APR);
      00009B AE 50 F1         [ 2]  135 	ldw	x, #0x50f1
      00009E F6               [ 1]  136 	ld	a, (x)
      00009F A4 C0            [ 1]  137 	and	a, #0xc0
      0000A1 F7               [ 1]  138 	ld	(x), a
                                    139 ;	/home/grytole/dev/git/stm8builder/stm8builder/stdperiph_driver/src/stm8s_awu.awu_init.c: 89: AWU->APR |= APR_Array[(uint8_t)AWU_TimeBase];
      0000A2 AE 50 F1         [ 2]  140 	ldw	x, #0x50f1
      0000A5 F6               [ 1]  141 	ld	a, (x)
      0000A6 6B 02            [ 1]  142 	ld	(0x02, sp), a
      0000A8 AEr00rBB         [ 2]  143 	ldw	x, #_APR_Array+0
      0000AB 9F               [ 1]  144 	ld	a, xl
      0000AC 1B 05            [ 1]  145 	add	a, (0x05, sp)
      0000AE 02               [ 1]  146 	rlwa	x
      0000AF A9 00            [ 1]  147 	adc	a, #0x00
      0000B1 95               [ 1]  148 	ld	xh, a
      0000B2 F6               [ 1]  149 	ld	a, (x)
      0000B3 1A 02            [ 1]  150 	or	a, (0x02, sp)
      0000B5 AE 50 F1         [ 2]  151 	ldw	x, #0x50f1
      0000B8 F7               [ 1]  152 	ld	(x), a
      0000B9 85               [ 2]  153 	popw	x
      0000BA 81               [ 4]  154 	ret
                                    155 	.area CODE
      0000BB                        156 _APR_Array:
      0000BB 00                     157 	.db #0x00	; 0
      0000BC 1E                     158 	.db #0x1E	; 30
      0000BD 1E                     159 	.db #0x1E	; 30
      0000BE 1E                     160 	.db #0x1E	; 30
      0000BF 1E                     161 	.db #0x1E	; 30
      0000C0 1E                     162 	.db #0x1E	; 30
      0000C1 1E                     163 	.db #0x1E	; 30
      0000C2 1E                     164 	.db #0x1E	; 30
      0000C3 1E                     165 	.db #0x1E	; 30
      0000C4 1E                     166 	.db #0x1E	; 30
      0000C5 1E                     167 	.db #0x1E	; 30
      0000C6 1E                     168 	.db #0x1E	; 30
      0000C7 1E                     169 	.db #0x1E	; 30
      0000C8 3D                     170 	.db #0x3D	; 61
      0000C9 17                     171 	.db #0x17	; 23
      0000CA 17                     172 	.db #0x17	; 23
      0000CB 3E                     173 	.db #0x3E	; 62
      0000CC                        174 _TBR_Array:
      0000CC 00                     175 	.db #0x00	; 0
      0000CD 01                     176 	.db #0x01	; 1
      0000CE 02                     177 	.db #0x02	; 2
      0000CF 03                     178 	.db #0x03	; 3
      0000D0 04                     179 	.db #0x04	; 4
      0000D1 05                     180 	.db #0x05	; 5
      0000D2 06                     181 	.db #0x06	; 6
      0000D3 07                     182 	.db #0x07	; 7
      0000D4 08                     183 	.db #0x08	; 8
      0000D5 09                     184 	.db #0x09	; 9
      0000D6 0A                     185 	.db #0x0A	; 10
      0000D7 0B                     186 	.db #0x0B	; 11
      0000D8 0C                     187 	.db #0x0C	; 12
      0000D9 0C                     188 	.db #0x0C	; 12
      0000DA 0E                     189 	.db #0x0E	; 14
      0000DB 0F                     190 	.db #0x0F	; 15
      0000DC 0F                     191 	.db #0x0F	; 15
      0000DD                        192 ___str_0:
      0000DD 2F 68 6F 6D 65 2F 67   193 	.ascii "/home/grytole/dev/git/stm8builder/stm8builder/stdperiph_driv"
             72 79 74 6F 6C 65 2F
             64 65 76 2F 67 69 74
             2F 73 74 6D 38 62 75
             69 6C 64 65 72 2F 73
             74 6D 38 62 75 69 6C
             64 65 72 2F 73 74 64
             70 65 72 69 70 68 5F
             64 72 69 76
      000119 65 72 2F 73 72 63 2F   194 	.ascii "er/src/stm8s_awu.awu_init.c"
             73 74 6D 38 73 5F 61
             77 75 2E 61 77 75 5F
             69 6E 69 74 2E 63
      000134 00                     195 	.db 0x00
                                    196 	.area INITIALIZER
                                    197 	.area CABS (ABS)
